target datalayout = "e-m:e-p270:32:32-p271:32:32-p272:64:64-i64:64-i128:128-f80:128-n8:16:32:64-S128"
target triple = "x86_64-pc-linux-gnu"

%struct.traceobj_arg = type { i32, i32, i64, i64, ptr, ptr, ptr }
%struct.RBasic = type { i64, i64 }
%struct.RTypedData = type { %struct.RBasic, ptr, i64, ptr }

@tmp_trace_arg = internal global ptr null, align 8
@rb_cObject = external global i64, align 8
@traceobj_arg = internal global i64 0, align 8
@tmp_keep_remains = internal global i32 0, align 4

; Function Attrs: inlinehint nounwind sspstrong uwtable
define internal zeroext i1 @RTYPEDDATA_EMBEDDED_P(i64 noundef %0) #3 {
  %2 = alloca i64, align 8
  store i64 %0, ptr %2, align 8, !tbaa !6
  %3 = load i64, ptr %2, align 8, !tbaa !6
  %4 = inttoptr i64 %3 to ptr
  %5 = getelementptr inbounds nuw %struct.RTypedData, ptr %4, i32 0, i32 2
  %6 = load i64, ptr %5, align 8, !tbaa !45
  %7 = and i64 %6, 2
  %8 = icmp ne i64 %7, 0
  ret i1 %8
}

; Function Attrs: inlinehint nounwind sspstrong uwtable
define internal ptr @RTYPEDDATA_GET_DATA(i64 noundef %0) #3 {
  %2 = alloca i64, align 8
  %3 = alloca i64, align 8
  store i64 %0, ptr %2, align 8, !tbaa !6
  call void @llvm.lifetime.start.p0(i64 8, ptr %3) #17
  store i64 32, ptr %3, align 8, !tbaa !6
  %4 = load i64, ptr %2, align 8, !tbaa !6
  %5 = call zeroext i1 @RTYPEDDATA_EMBEDDED_P(i64 noundef %4)
  br i1 %5, label %6, label %10

6:                                                ; preds = %1
  %7 = load i64, ptr %2, align 8, !tbaa !6
  %8 = inttoptr i64 %7 to ptr
  %9 = getelementptr inbounds nuw i8, ptr %8, i64 32
  br label %15

10:                                               ; preds = %1
  %11 = load i64, ptr %2, align 8, !tbaa !6
  %12 = inttoptr i64 %11 to ptr
  %13 = getelementptr inbounds nuw %struct.RTypedData, ptr %12, i32 0, i32 3
  %14 = load ptr, ptr %13, align 8, !tbaa !41
  br label %15

15:                                               ; preds = %10, %6
  %16 = phi ptr [ %9, %6 ], [ %14, %10 ]
  call void @llvm.lifetime.end.p0(i64 8, ptr %3) #17
  ret ptr %16
}

; Function Attrs: nounwind sspstrong uwtable
define internal ptr @get_traceobj_arg() #0 {
  %1 = alloca i64, align 8
  %2 = alloca i64, align 8
  %3 = alloca i64, align 8
  %4 = load ptr, ptr @tmp_trace_arg, align 8, !tbaa !10
  %5 = icmp eq ptr %4, null
  br i1 %5, label %6, label %30

6:                                                ; preds = %0
  call void @llvm.lifetime.start.p0(i64 8, ptr %1) #17
  call void @llvm.lifetime.start.p0(i64 8, ptr %2) #17
  %7 = load i64, ptr @rb_cObject, align 8, !tbaa !6
  %8 = call i64 @rb_data_typed_object_zalloc(i64 noundef %7, i64 noundef 48, ptr noundef @allocation_info_tracer_type)
  store i64 %8, ptr %2, align 8, !tbaa !6
  %9 = load i64, ptr %2, align 8, !tbaa !6
  %10 = call ptr @RTYPEDDATA_GET_DATA(i64 noundef %9)
  store ptr %10, ptr @tmp_trace_arg, align 8, !tbaa !10
  %11 = load i64, ptr %2, align 8, !tbaa !6
  store i64 %11, ptr %3, align 8, !tbaa !6
  call void @llvm.lifetime.end.p0(i64 8, ptr %2) #17
  %12 = load i64, ptr %3, align 8, !tbaa !6
  store i64 %12, ptr %1, align 8, !tbaa !6
  %13 = load i64, ptr %1, align 8, !tbaa !6
  store i64 %13, ptr @traceobj_arg, align 8, !tbaa !6
  %14 = load i64, ptr @traceobj_arg, align 8, !tbaa !6
  call void @rb_gc_register_mark_object(i64 noundef %14)
  %15 = load ptr, ptr @tmp_trace_arg, align 8, !tbaa !10
  %16 = getelementptr inbounds nuw %struct.traceobj_arg, ptr %15, i32 0, i32 0
  store i32 0, ptr %16, align 8, !tbaa !17
  %17 = load i32, ptr @tmp_keep_remains, align 4, !tbaa !21
  %18 = load ptr, ptr @tmp_trace_arg, align 8, !tbaa !10
  %19 = getelementptr inbounds nuw %struct.traceobj_arg, ptr %18, i32 0, i32 1
  store i32 %17, ptr %19, align 4, !tbaa !31
  %20 = load ptr, ptr @tmp_trace_arg, align 8, !tbaa !10
  %21 = getelementptr inbounds nuw %struct.traceobj_arg, ptr %20, i32 0, i32 2
  store i64 0, ptr %21, align 8, !tbaa !18
  %22 = load ptr, ptr @tmp_trace_arg, align 8, !tbaa !10
  %23 = getelementptr inbounds nuw %struct.traceobj_arg, ptr %22, i32 0, i32 3
  store i64 0, ptr %23, align 8, !tbaa !19
  %24 = call ptr @rb_st_init_numtable()
  %25 = load ptr, ptr @tmp_trace_arg, align 8, !tbaa !10
  %26 = getelementptr inbounds nuw %struct.traceobj_arg, ptr %25, i32 0, i32 4
  store ptr %24, ptr %26, align 8, !tbaa !13
  %27 = call ptr @rb_st_init_strtable()
  %28 = load ptr, ptr @tmp_trace_arg, align 8, !tbaa !10
  %29 = getelementptr inbounds nuw %struct.traceobj_arg, ptr %28, i32 0, i32 5
  store ptr %27, ptr %29, align 8, !tbaa !20
  call void @llvm.lifetime.end.p0(i64 8, ptr %1) #17
  br label %30

30:                                               ; preds = %6, %0
  %31 = load ptr, ptr @tmp_trace_arg, align 8, !tbaa !10
  ret ptr %31
}

; Function Attrs: nounwind sspstrong uwtable
define internal i64 @trace_object_allocations_stop(i64 noundef %0) #0 {
  %2 = alloca i64, align 8
  %3 = alloca ptr, align 8
  store i64 %0, ptr %2, align 8, !tbaa !6
  call void @llvm.lifetime.start.p0(i64 8, ptr %3) #17
  %4 = call ptr @get_traceobj_arg()
  store ptr %4, ptr %3, align 8, !tbaa !10
  %5 = load ptr, ptr %3, align 8, !tbaa !10
  %6 = getelementptr inbounds nuw %struct.traceobj_arg, ptr %5, i32 0, i32 0
  %7 = load i32, ptr %6, align 8, !tbaa !17
  %8 = icmp sgt i32 %7, 0
  br i1 %8, label %9, label %14

9:                                                ; preds = %1
  %10 = load ptr, ptr %3, align 8, !tbaa !10
  %11 = getelementptr inbounds nuw %struct.traceobj_arg, ptr %10, i32 0, i32 0
  %12 = load i32, ptr %11, align 8, !tbaa !17
  %13 = add nsw i32 %12, -1
  store i32 %13, ptr %11, align 8, !tbaa !17
  br label %14

14:                                               ; preds = %9, %1
  %15 = load ptr, ptr %3, align 8, !tbaa !10
  %16 = getelementptr inbounds nuw %struct.traceobj_arg, ptr %15, i32 0, i32 0
  %17 = load i32, ptr %16, align 8, !tbaa !17
  %18 = icmp eq i32 %17, 0
  br i1 %18, label %19, label %40

19:                                               ; preds = %14
  %20 = load ptr, ptr %3, align 8, !tbaa !10
  %21 = getelementptr inbounds nuw %struct.traceobj_arg, ptr %20, i32 0, i32 2
  %22 = load i64, ptr %21, align 8, !tbaa !18
  %23 = icmp ne i64 %22, 0
  br i1 %23, label %24, label %29

24:                                               ; preds = %19
  %25 = load ptr, ptr %3, align 8, !tbaa !10
  %26 = getelementptr inbounds nuw %struct.traceobj_arg, ptr %25, i32 0, i32 2
  %27 = load i64, ptr %26, align 8, !tbaa !18
  %28 = call i64 @rb_tracepoint_disable(i64 noundef %27)
  br label %29

29:                                               ; preds = %24, %19
  %30 = load ptr, ptr %3, align 8, !tbaa !10
  %31 = getelementptr inbounds nuw %struct.traceobj_arg, ptr %30, i32 0, i32 3
  %32 = load i64, ptr %31, align 8, !tbaa !19
  %33 = icmp ne i64 %32, 0
  br i1 %33, label %34, label %39

34:                                               ; preds = %29
  %35 = load ptr, ptr %3, align 8, !tbaa !10
  %36 = getelementptr inbounds nuw %struct.traceobj_arg, ptr %35, i32 0, i32 3
  %37 = load i64, ptr %36, align 8, !tbaa !19
  %38 = call i64 @rb_tracepoint_disable(i64 noundef %37)
  br label %39

39:                                               ; preds = %34, %29
  br label %40

40:                                               ; preds = %39, %14
  call void @llvm.lifetime.end.p0(i64 8, ptr %3) #17
  ret i64 4
}